target datalayout = "e-m:e-p270:32:32-p271:32:32-p272:64:64-i64:64-i128:128-f80:128-n8:16:32:64-S128"
target triple = "x86_64-unknown-linux-gnu"

%struct.SCSISense = type { i8, i8, i8 }

@sense_code_TARGET_FAILURE = dso_local constant %struct.SCSISense { i8 4, i8 68, i8 0 }, align 1
@sense_code_I_T_NEXUS_LOSS = dso_local constant %struct.SCSISense { i8 11, i8 41, i8 7 }, align 1
@sense_code_LUN_COMM_FAILURE = dso_local constant %struct.SCSISense { i8 11, i8 8, i8 0 }, align 1
@sense_code_LUN_NOT_RESPONDING = dso_local constant %struct.SCSISense { i8 11, i8 5, i8 0 }, align 1
@sense_code_COMMAND_TIMEOUT = dso_local constant %struct.SCSISense { i8 11, i8 46, i8 2 }, align 1
@sense_code_COMMAND_ABORTED = dso_local constant %struct.SCSISense { i8 11, i8 47, i8 2 }, align 1
@sense_code_READ_ERROR = dso_local constant %struct.SCSISense { i8 3, i8 17, i8 0 }, align 1
@sense_code_RESET = dso_local constant %struct.SCSISense { i8 6, i8 41, i8 0 }, align 1
@sense_code_SPACE_ALLOC_FAILED = dso_local constant %struct.SCSISense { i8 7, i8 39, i8 7 }, align 1

; Function Attrs: nounwind sspstrong uwtable
define dso_local i32 @scsi_sense_from_host_status(i8 noundef zeroext %host_status, ptr noundef %sense) #0 {
entry:
  %retval = alloca i32, align 4
  %host_status.addr = alloca i8, align 1
  %sense.addr = alloca ptr, align 8
  store i8 %host_status, ptr %host_status.addr, align 1
  store ptr %sense, ptr %sense.addr, align 8
  %0 = load i8, ptr %host_status.addr, align 1
  %conv = zext i8 %0 to i32
  switch i32 %conv, label %sw.epilog [
    i32 1, label %sw.bb
    i32 2, label %sw.bb1
    i32 3, label %sw.bb2
    i32 4, label %sw.bb3
    i32 5, label %sw.bb4
    i32 8, label %sw.bb5
    i32 14, label %sw.bb6
    i32 16, label %sw.bb7
    i32 17, label %sw.bb8
    i32 18, label %sw.bb9
    i32 19, label %sw.bb10
  ]

sw.bb:                                            ; preds = %entry
  %1 = load ptr, ptr %sense.addr, align 8
  call void @llvm.memcpy.p0.p0.i64(ptr align 1 %1, ptr align 1 @sense_code_LUN_NOT_RESPONDING, i64 3, i1 false)
  store i32 2, ptr %retval, align 4
  br label %return

sw.bb1:                                           ; preds = %entry
  store i32 8, ptr %retval, align 4
  br label %return

sw.bb2:                                           ; preds = %entry
  %2 = load ptr, ptr %sense.addr, align 8
  call void @llvm.memcpy.p0.p0.i64(ptr align 1 %2, ptr align 1 @sense_code_COMMAND_TIMEOUT, i64 3, i1 false)
  store i32 2, ptr %retval, align 4
  br label %return

sw.bb3:                                           ; preds = %entry
  %3 = load ptr, ptr %sense.addr, align 8
  call void @llvm.memcpy.p0.p0.i64(ptr align 1 %3, ptr align 1 @sense_code_LUN_COMM_FAILURE, i64 3, i1 false)
  store i32 2, ptr %retval, align 4
  br label %return

sw.bb4:                                           ; preds = %entry
  %4 = load ptr, ptr %sense.addr, align 8
  call void @llvm.memcpy.p0.p0.i64(ptr align 1 %4, ptr align 1 @sense_code_COMMAND_ABORTED, i64 3, i1 false)
  store i32 2, ptr %retval, align 4
  br label %return

sw.bb5:                                           ; preds = %entry
  %5 = load ptr, ptr %sense.addr, align 8
  call void @llvm.memcpy.p0.p0.i64(ptr align 1 %5, ptr align 1 @sense_code_RESET, i64 3, i1 false)
  store i32 2, ptr %retval, align 4
  br label %return

sw.bb6:                                           ; preds = %entry
  %6 = load ptr, ptr %sense.addr, align 8
  call void @llvm.memcpy.p0.p0.i64(ptr align 1 %6, ptr align 1 @sense_code_I_T_NEXUS_LOSS, i64 3, i1 false)
  store i32 2, ptr %retval, align 4
  br label %return

sw.bb7:                                           ; preds = %entry
  %7 = load ptr, ptr %sense.addr, align 8
  call void @llvm.memcpy.p0.p0.i64(ptr align 1 %7, ptr align 1 @sense_code_TARGET_FAILURE, i64 3, i1 false)
  store i32 2, ptr %retval, align 4
  br label %return

sw.bb8:                                           ; preds = %entry
  store i32 24, ptr %retval, align 4
  br label %return

sw.bb9:                                           ; preds = %entry
  %8 = load ptr, ptr %sense.addr, align 8
  call void @llvm.memcpy.p0.p0.i64(ptr align 1 %8, ptr align 1 @sense_code_SPACE_ALLOC_FAILED, i64 3, i1 false)
  store i32 2, ptr %retval, align 4
  br label %return

sw.bb10:                                          ; preds = %entry
  %9 = load ptr, ptr %sense.addr, align 8
  call void @llvm.memcpy.p0.p0.i64(ptr align 1 %9, ptr align 1 @sense_code_READ_ERROR, i64 3, i1 false)
  store i32 2, ptr %retval, align 4
  br label %return

sw.epilog:                                        ; preds = %entry
  store i32 0, ptr %retval, align 4
  br label %return

return:                                           ; preds = %sw.epilog, %sw.bb10, %sw.bb9, %sw.bb8, %sw.bb7, %sw.bb6, %sw.bb5, %sw.bb4, %sw.bb3, %sw.bb2, %sw.bb1, %sw.bb
  %10 = load i32, ptr %retval, align 4
  ret i32 %10
}