; Function Attrs: mustprogress nofree norecurse nosync nounwind sspstrong willreturn memory(argmem: readwrite) uwtable
define dso_local range(i32 0, 25) i32 @scsi_sense_from_host_status(i8 noundef zeroext %host_status, ptr noundef writeonly captures(none) %sense) local_unnamed_addr #4 {
entry:
  switch i8 %host_status, label %sw.epilog [
    i8 1, label %sw.bb
    i8 2, label %return
    i8 3, label %sw.bb2
    i8 4, label %sw.bb3
    i8 5, label %sw.bb4
    i8 8, label %sw.bb5
    i8 14, label %sw.bb6
    i8 16, label %sw.bb7
    i8 17, label %sw.bb8
    i8 18, label %sw.bb9
    i8 19, label %sw.bb10
  ]

sw.bb:                                            ; preds = %entry
  tail call void @llvm.memcpy.p0.p0.i64(ptr noundef nonnull align 1 dereferenceable(3) %sense, ptr noundef nonnull align 1 dereferenceable(3) @sense_code_LUN_NOT_RESPONDING, i64 3, i1 false)
  br label %return

sw.bb2:                                           ; preds = %entry
  tail call void @llvm.memcpy.p0.p0.i64(ptr noundef nonnull align 1 dereferenceable(3) %sense, ptr noundef nonnull align 1 dereferenceable(3) @sense_code_COMMAND_TIMEOUT, i64 3, i1 false)
  br label %return

sw.bb3:                                           ; preds = %entry
  tail call void @llvm.memcpy.p0.p0.i64(ptr noundef nonnull align 1 dereferenceable(3) %sense, ptr noundef nonnull align 1 dereferenceable(3) @sense_code_LUN_COMM_FAILURE, i64 3, i1 false)
  br label %return

sw.bb4:                                           ; preds = %entry
  tail call void @llvm.memcpy.p0.p0.i64(ptr noundef nonnull align 1 dereferenceable(3) %sense, ptr noundef nonnull align 1 dereferenceable(3) @sense_code_COMMAND_ABORTED, i64 3, i1 false)
  br label %return

sw.bb5:                                           ; preds = %entry
  tail call void @llvm.memcpy.p0.p0.i64(ptr noundef nonnull align 1 dereferenceable(3) %sense, ptr noundef nonnull align 1 dereferenceable(3) @sense_code_RESET, i64 3, i1 false)
  br label %return

sw.bb6:                                           ; preds = %entry
  tail call void @llvm.memcpy.p0.p0.i64(ptr noundef nonnull align 1 dereferenceable(3) %sense, ptr noundef nonnull align 1 dereferenceable(3) @sense_code_I_T_NEXUS_LOSS, i64 3, i1 false)
  br label %return

sw.bb7:                                           ; preds = %entry
  tail call void @llvm.memcpy.p0.p0.i64(ptr noundef nonnull align 1 dereferenceable(3) %sense, ptr noundef nonnull align 1 dereferenceable(3) @sense_code_TARGET_FAILURE, i64 3, i1 false)
  br label %return

sw.bb8:                                           ; preds = %entry
  br label %return

sw.bb9:                                           ; preds = %entry
  tail call void @llvm.memcpy.p0.p0.i64(ptr noundef nonnull align 1 dereferenceable(3) %sense, ptr noundef nonnull align 1 dereferenceable(3) @sense_code_SPACE_ALLOC_FAILED, i64 3, i1 false)
  br label %return

sw.bb10:                                          ; preds = %entry
  tail call void @llvm.memcpy.p0.p0.i64(ptr noundef nonnull align 1 dereferenceable(3) %sense, ptr noundef nonnull align 1 dereferenceable(3) @sense_code_READ_ERROR, i64 3, i1 false)
  br label %return

sw.epilog:                                        ; preds = %entry
  br label %return

return:                                           ; preds = %entry, %sw.epilog, %sw.bb10, %sw.bb9, %sw.bb8, %sw.bb7, %sw.bb6, %sw.bb5, %sw.bb4, %sw.bb3, %sw.bb2, %sw.bb
  %retval.0 = phi i32 [ 0, %sw.epilog ], [ 2, %sw.bb10 ], [ 2, %sw.bb9 ], [ 24, %sw.bb8 ], [ 2, %sw.bb7 ], [ 2, %sw.bb6 ], [ 2, %sw.bb5 ], [ 2, %sw.bb4 ], [ 2, %sw.bb3 ], [ 2, %sw.bb2 ], [ 2, %sw.bb ], [ 8, %entry ]
  ret i32 %retval.0
}